target datalayout = "e-m:e-p270:32:32-p271:32:32-p272:64:64-i64:64-i128:128-f80:128-n8:16:32:64-S128"
target triple = "x86_64-pc-linux-gnu"

%struct.GatherMergeState = type { %struct.PlanState, i8, i8, i8, i64, ptr, i32, ptr, ptr, i32, i32, ptr, ptr, ptr, ptr }
%struct.PlanState = type { i32, ptr, ptr, ptr, ptr, ptr, ptr, ptr, ptr, ptr, ptr, ptr, ptr, ptr, ptr, ptr, ptr, ptr, i8, ptr, ptr, ptr, ptr, ptr, i8, i8, i8, i8, i8, i8, i8, i8 }

; Function Attrs: nounwind uwtable
define internal void @ExecShutdownGatherMergeWorkers(ptr noundef %0) #0 {
  %2 = alloca ptr, align 8
  store ptr %0, ptr %2, align 8
  %3 = load ptr, ptr %2, align 8
  %4 = getelementptr inbounds nuw %struct.GatherMergeState, ptr %3, i32 0, i32 8
  %5 = load ptr, ptr %4, align 8
  %6 = icmp ne ptr %5, null
  br i1 %6, label %7, label %11

7:                                                ; preds = %1
  %8 = load ptr, ptr %2, align 8
  %9 = getelementptr inbounds nuw %struct.GatherMergeState, ptr %8, i32 0, i32 8
  %10 = load ptr, ptr %9, align 8
  call void @ExecParallelFinish(ptr noundef %10)
  br label %11

11:                                               ; preds = %7, %1
  %12 = load ptr, ptr %2, align 8
  %13 = getelementptr inbounds nuw %struct.GatherMergeState, ptr %12, i32 0, i32 12
  %14 = load ptr, ptr %13, align 8
  %15 = icmp ne ptr %14, null
  br i1 %15, label %16, label %20

16:                                               ; preds = %11
  %17 = load ptr, ptr %2, align 8
  %18 = getelementptr inbounds nuw %struct.GatherMergeState, ptr %17, i32 0, i32 12
  %19 = load ptr, ptr %18, align 8
  call void @pfree(ptr noundef %19)
  br label %20

20:                                               ; preds = %16, %11
  %21 = load ptr, ptr %2, align 8
  %22 = getelementptr inbounds nuw %struct.GatherMergeState, ptr %21, i32 0, i32 12
  store ptr null, ptr %22, align 8
  ret void
}

; Function Attrs: nounwind uwtable
define dso_local void @ExecShutdownGatherMerge(ptr noundef %0) #0 {
  %2 = alloca ptr, align 8
  store ptr %0, ptr %2, align 8
  %3 = load ptr, ptr %2, align 8
  call void @ExecShutdownGatherMergeWorkers(ptr noundef %3)
  %4 = load ptr, ptr %2, align 8
  %5 = getelementptr inbounds nuw %struct.GatherMergeState, ptr %4, i32 0, i32 8
  %6 = load ptr, ptr %5, align 8
  %7 = icmp ne ptr %6, null
  br i1 %7, label %8, label %14

8:                                                ; preds = %1
  %9 = load ptr, ptr %2, align 8
  %10 = getelementptr inbounds nuw %struct.GatherMergeState, ptr %9, i32 0, i32 8
  %11 = load ptr, ptr %10, align 8
  call void @ExecParallelCleanup(ptr noundef %11)
  %12 = load ptr, ptr %2, align 8
  %13 = getelementptr inbounds nuw %struct.GatherMergeState, ptr %12, i32 0, i32 8
  store ptr null, ptr %13, align 8
  br label %14

14:                                               ; preds = %8, %1
  ret void
}

; Function Attrs: nounwind uwtable
define dso_local void @ExecEndGatherMerge(ptr noundef %0) #0 {
  %2 = alloca ptr, align 8
  store ptr %0, ptr %2, align 8
  %3 = load ptr, ptr %2, align 8
  %4 = getelementptr inbounds nuw %struct.PlanState, ptr %3, i32 0, i32 9
  %5 = load ptr, ptr %4, align 8
  call void @ExecEndNode(ptr noundef %5)
  %6 = load ptr, ptr %2, align 8
  call void @ExecShutdownGatherMerge(ptr noundef %6)
  ret void
}