; Function Attrs: nounwind uwtable
define dso_local void @ExecEndGatherMerge(ptr noundef captures(none) %0) local_unnamed_addr #0 {
  %2 = getelementptr inbounds nuw i8, ptr %0, i64 72
  %3 = load ptr, ptr %2, align 8
  tail call void @ExecEndNode(ptr noundef %3) #4
  %4 = getelementptr inbounds nuw i8, ptr %0, i64 240
  %5 = load ptr, ptr %4, align 8
  %.not.i.i = icmp eq ptr %5, null
  br i1 %.not.i.i, label %7, label %6

6:                                                ; preds = %1
  tail call void @ExecParallelFinish(ptr noundef nonnull %5) #4
  br label %7

7:                                                ; preds = %6, %1
  %8 = getelementptr inbounds nuw i8, ptr %0, i64 264
  %9 = load ptr, ptr %8, align 8
  %.not6.i.i = icmp eq ptr %9, null
  br i1 %.not6.i.i, label %ExecShutdownGatherMergeWorkers.exit.i, label %10

10:                                               ; preds = %7
  tail call void @pfree(ptr noundef nonnull %9) #4
  br label %ExecShutdownGatherMergeWorkers.exit.i

ExecShutdownGatherMergeWorkers.exit.i:            ; preds = %10, %7
  store ptr null, ptr %8, align 8
  %11 = load ptr, ptr %4, align 8
  %.not.i = icmp eq ptr %11, null
  br i1 %.not.i, label %ExecShutdownGatherMerge.exit, label %12

12:                                               ; preds = %ExecShutdownGatherMergeWorkers.exit.i
  tail call void @ExecParallelCleanup(ptr noundef nonnull %11) #4
  store ptr null, ptr %4, align 8
  br label %ExecShutdownGatherMerge.exit

ExecShutdownGatherMerge.exit:                     ; preds = %ExecShutdownGatherMergeWorkers.exit.i, %12
  ret void
}